target datalayout = "e-m:e-p270:32:32-p271:32:32-p272:64:64-i64:64-i128:128-f80:128-n8:16:32:64-S128"
target triple = "x86_64-pc-linux-gnu"

%struct.QMetaObject = type { %struct.anon }
%struct.anon = type { %"struct.QMetaObject::SuperData", ptr, ptr, ptr, ptr, ptr }
%"struct.QMetaObject::SuperData" = type { ptr }
%class.QString = type { ptr }

@.str.58 = private unnamed_addr constant [116 x i8] c"A laplacian smooth that is constrained to move vertices only in one given direction (usually the viewer direction).\00", align 1
@.str.60 = private unnamed_addr constant [168 x i8] c"Cut the mesh along crease edges, duplicating the vertices as necessary. Crease (or sharp) edges are defined according to the variation of normal of the adjacent faces.\00", align 1
@.str.61 = private unnamed_addr constant [47 x i8] c"Normalize Face Normal Lengths to unit vectors.\00", align 1
@.str.62 = private unnamed_addr constant [49 x i8] c"Normalize Vertex Normal Lengths to unit vectors.\00", align 1
@.str.63 = private unnamed_addr constant [110 x i8] c"Laplacian smooth of the <a href='https://stackoverflow.com/questions/58610746'>quality per vertex</a> values.\00", align 1
@.str.64 = private unnamed_addr constant [85 x i8] c"Laplacian smooth of the face normals, without touching the position of the vertices.\00", align 1
@.str.66 = private unnamed_addr constant [176 x i8] c"Apply Unsharp filter to geometric shape, putting in more evidence ridges and valleys variations.<br><a href='https://en.wikipedia.org/wiki/Unsharp_masking'>Unsharp Masking</a>\00", align 1
@.str.67 = private unnamed_addr constant [196 x i8] c"Apply Unsharp filter to values of <a href='https://stackoverflow.com/questions/58610746'>quality per vertex</a>.<br>See <a href='https://en.wikipedia.org/wiki/Unsharp_masking'>Unsharp Masking</a>\00", align 1
@.str.68 = private unnamed_addr constant [168 x i8] c"Apply Unsharp filter to the vertex color, putting in more evidence color variations.<br>See <a href='https://en.wikipedia.org/wiki/Unsharp_masking'>Unsharp Masking</a>\00", align 1
@.str.70 = private unnamed_addr constant [174 x i8] c"Recompute face normals as the normal of the plane of the face.<br>See <a href='https://math.stackexchange.com/questions/305642/'>How to find surface normal of a triangle</a>\00", align 1
@.str.74 = private unnamed_addr constant [38 x i8] c"Error on FilterUnsharp::filterInfo()!\00", align 1
@_ZN13FilterUnsharp16staticMetaObjectE = external global %struct.QMetaObject, align 8

; Function Attrs: mustprogress uwtable
define linkonce_odr void @_ZN7QStringC2EPKc(ptr noundef nonnull align 8 dereferenceable(8) %0, ptr noundef %1) unnamed_addr #5 comdat align 2 {
  %3 = alloca ptr, align 8
  %4 = alloca ptr, align 8
  store ptr %0, ptr %3, align 8
  store ptr %1, ptr %4, align 8
  %5 = load ptr, ptr %3, align 8
  %6 = getelementptr inbounds %class.QString, ptr %5, i32 0, i32 0
  %7 = load ptr, ptr %4, align 8
  %8 = load ptr, ptr %4, align 8
  %9 = icmp ne ptr %8, null
  br i1 %9, label %10, label %14

10:                                               ; preds = %2
  %11 = load ptr, ptr %4, align 8
  %12 = call i64 @strlen(ptr noundef %11) #26
  %13 = trunc i64 %12 to i32
  br label %15

14:                                               ; preds = %2
  br label %15

15:                                               ; preds = %14, %10
  %16 = phi i32 [ %13, %10 ], [ -1, %14 ]
  %17 = call noundef ptr @_ZN7QString16fromAscii_helperEPKci(ptr noundef %7, i32 noundef %16)
  store ptr %17, ptr %6, align 8
  ret void
}

; Function Attrs: mustprogress uwtable
define linkonce_odr void @_ZN13FilterUnsharp2trEPKcS1_i(ptr dead_on_unwind noalias writable sret(%class.QString) align 8 %0, ptr noundef %1, ptr noundef %2, i32 noundef %3) #5 comdat align 2 {
  %5 = alloca ptr, align 8
  %6 = alloca ptr, align 8
  %7 = alloca ptr, align 8
  %8 = alloca i32, align 4
  store ptr %0, ptr %5, align 8
  store ptr %1, ptr %6, align 8
  store ptr %2, ptr %7, align 8
  store i32 %3, ptr %8, align 4
  %9 = load ptr, ptr %6, align 8
  %10 = load ptr, ptr %7, align 8
  %11 = load i32, ptr %8, align 4
  call void @_ZNK11QMetaObject2trEPKcS1_i(ptr dead_on_unwind writable sret(%class.QString) align 8 %0, ptr noundef nonnull align 8 dereferenceable(48) @_ZN13FilterUnsharp16staticMetaObjectE, ptr noundef %9, ptr noundef %10, i32 noundef %11)
  ret void
}

; Function Attrs: mustprogress uwtable
define void @_ZNK13FilterUnsharp10filterInfoEi(ptr dead_on_unwind noalias writable sret(%class.QString) align 8 %0, ptr noundef nonnull align 8 dereferenceable(80) %1, i32 noundef %2) unnamed_addr #5 align 2 {
  %4 = alloca ptr, align 8
  %5 = alloca ptr, align 8
  %6 = alloca i32, align 4
  store ptr %0, ptr %4, align 8
  store ptr %1, ptr %5, align 8
  store i32 %2, ptr %6, align 4
  %7 = load i32, ptr %6, align 4
  switch i32 %7, label %29 [
    i32 1, label %8
    i32 4, label %9
    i32 5, label %10
    i32 6, label %11
    i32 7, label %12
    i32 3, label %13
    i32 2, label %14
    i32 0, label %15
    i32 9, label %16
    i32 10, label %17
    i32 11, label %18
    i32 8, label %19
    i32 12, label %20
    i32 13, label %21
    i32 14, label %22
    i32 15, label %23
    i32 17, label %24
    i32 18, label %25
    i32 19, label %26
    i32 20, label %27
    i32 21, label %28
  ]

8:                                                ; preds = %3
  call void @_ZN13FilterUnsharp2trEPKcS1_i(ptr dead_on_unwind writable sret(%class.QString) align 8 %0, ptr noundef @.str.53, ptr noundef null, i32 noundef -1)
  br label %31

9:                                                ; preds = %3
  call void @_ZN13FilterUnsharp2trEPKcS1_i(ptr dead_on_unwind writable sret(%class.QString) align 8 %0, ptr noundef @.str.54, ptr noundef null, i32 noundef -1)
  br label %31

10:                                               ; preds = %3
  call void @_ZN13FilterUnsharp2trEPKcS1_i(ptr dead_on_unwind writable sret(%class.QString) align 8 %0, ptr noundef @.str.55, ptr noundef null, i32 noundef -1)
  br label %31

11:                                               ; preds = %3
  call void @_ZN13FilterUnsharp2trEPKcS1_i(ptr dead_on_unwind writable sret(%class.QString) align 8 %0, ptr noundef @.str.56, ptr noundef null, i32 noundef -1)
  br label %31

12:                                               ; preds = %3
  call void @_ZN13FilterUnsharp2trEPKcS1_i(ptr dead_on_unwind writable sret(%class.QString) align 8 %0, ptr noundef @.str.57, ptr noundef null, i32 noundef -1)
  br label %31

13:                                               ; preds = %3
  call void @_ZN13FilterUnsharp2trEPKcS1_i(ptr dead_on_unwind writable sret(%class.QString) align 8 %0, ptr noundef @.str.58, ptr noundef null, i32 noundef -1)
  br label %31

14:                                               ; preds = %3
  call void @_ZN13FilterUnsharp2trEPKcS1_i(ptr dead_on_unwind writable sret(%class.QString) align 8 %0, ptr noundef @.str.59, ptr noundef null, i32 noundef -1)
  br label %31

15:                                               ; preds = %3
  call void @_ZN13FilterUnsharp2trEPKcS1_i(ptr dead_on_unwind writable sret(%class.QString) align 8 %0, ptr noundef @.str.60, ptr noundef null, i32 noundef -1)
  br label %31

16:                                               ; preds = %3
  call void @_ZN13FilterUnsharp2trEPKcS1_i(ptr dead_on_unwind writable sret(%class.QString) align 8 %0, ptr noundef @.str.61, ptr noundef null, i32 noundef -1)
  br label %31

17:                                               ; preds = %3
  call void @_ZN13FilterUnsharp2trEPKcS1_i(ptr dead_on_unwind writable sret(%class.QString) align 8 %0, ptr noundef @.str.62, ptr noundef null, i32 noundef -1)
  br label %31

18:                                               ; preds = %3
  call void @_ZN13FilterUnsharp2trEPKcS1_i(ptr dead_on_unwind writable sret(%class.QString) align 8 %0, ptr noundef @.str.63, ptr noundef null, i32 noundef -1)
  br label %31

19:                                               ; preds = %3
  call void @_ZN13FilterUnsharp2trEPKcS1_i(ptr dead_on_unwind writable sret(%class.QString) align 8 %0, ptr noundef @.str.64, ptr noundef null, i32 noundef -1)
  br label %31

20:                                               ; preds = %3
  call void @_ZN13FilterUnsharp2trEPKcS1_i(ptr dead_on_unwind writable sret(%class.QString) align 8 %0, ptr noundef @.str.65, ptr noundef null, i32 noundef -1)
  br label %31

21:                                               ; preds = %3
  call void @_ZN13FilterUnsharp2trEPKcS1_i(ptr dead_on_unwind writable sret(%class.QString) align 8 %0, ptr noundef @.str.66, ptr noundef null, i32 noundef -1)
  br label %31

22:                                               ; preds = %3
  call void @_ZN13FilterUnsharp2trEPKcS1_i(ptr dead_on_unwind writable sret(%class.QString) align 8 %0, ptr noundef @.str.67, ptr noundef null, i32 noundef -1)
  br label %31

23:                                               ; preds = %3
  call void @_ZN13FilterUnsharp2trEPKcS1_i(ptr dead_on_unwind writable sret(%class.QString) align 8 %0, ptr noundef @.str.68, ptr noundef null, i32 noundef -1)
  br label %31

24:                                               ; preds = %3
  call void @_ZN13FilterUnsharp2trEPKcS1_i(ptr dead_on_unwind writable sret(%class.QString) align 8 %0, ptr noundef @.str.69, ptr noundef null, i32 noundef -1)
  br label %31

25:                                               ; preds = %3
  call void @_ZN13FilterUnsharp2trEPKcS1_i(ptr dead_on_unwind writable sret(%class.QString) align 8 %0, ptr noundef @.str.70, ptr noundef null, i32 noundef -1)
  br label %31

26:                                               ; preds = %3
  call void @_ZN13FilterUnsharp2trEPKcS1_i(ptr dead_on_unwind writable sret(%class.QString) align 8 %0, ptr noundef @.str.71, ptr noundef null, i32 noundef -1)
  br label %31

27:                                               ; preds = %3
  call void @_ZN13FilterUnsharp2trEPKcS1_i(ptr dead_on_unwind writable sret(%class.QString) align 8 %0, ptr noundef @.str.72, ptr noundef null, i32 noundef -1)
  br label %31

28:                                               ; preds = %3
  call void @_ZN7QStringC2EPKc(ptr noundef nonnull align 8 dereferenceable(8) %0, ptr noundef @.str.73)
  br label %31

29:                                               ; preds = %3
  br label %30

30:                                               ; preds = %29
  call void @_ZN7QStringC2EPKc(ptr noundef nonnull align 8 dereferenceable(8) %0, ptr noundef @.str.74)
  br label %31

31:                                               ; preds = %30, %28, %27, %26, %25, %24, %23, %22, %21, %20, %19, %18, %17, %16, %15, %14, %13, %12, %11, %10, %9, %8
  ret void
}