; Function Attrs: mustprogress uwtable
define void @_ZNK13FilterUnsharp10filterInfoEi(ptr dead_on_unwind noalias writable sret(%class.QString) align 8 %0, ptr nocapture nonnull readnone align 8 %1, i32 noundef %2) unnamed_addr #9 align 2 {
  switch i32 %2, label %26 [
    i32 1, label %4
    i32 4, label %5
    i32 5, label %6
    i32 6, label %7
    i32 7, label %8
    i32 3, label %9
    i32 2, label %10
    i32 0, label %11
    i32 9, label %12
    i32 10, label %13
    i32 11, label %14
    i32 8, label %15
    i32 12, label %16
    i32 13, label %17
    i32 14, label %18
    i32 15, label %19
    i32 17, label %20
    i32 18, label %21
    i32 19, label %22
    i32 20, label %23
    i32 21, label %24
  ]

4:                                                ; preds = %3
  tail call void @_ZNK11QMetaObject2trEPKcS1_i(ptr dead_on_unwind writable sret(%class.QString) align 8 %0, ptr noundef nonnull align 8 dereferenceable(48) @_ZN13FilterUnsharp16staticMetaObjectE, ptr noundef nonnull @.str.53, ptr noundef null, i32 noundef -1)
  br label %28

5:                                                ; preds = %3
  tail call void @_ZNK11QMetaObject2trEPKcS1_i(ptr dead_on_unwind writable sret(%class.QString) align 8 %0, ptr noundef nonnull align 8 dereferenceable(48) @_ZN13FilterUnsharp16staticMetaObjectE, ptr noundef nonnull @.str.54, ptr noundef null, i32 noundef -1)
  br label %28

6:                                                ; preds = %3
  tail call void @_ZNK11QMetaObject2trEPKcS1_i(ptr dead_on_unwind writable sret(%class.QString) align 8 %0, ptr noundef nonnull align 8 dereferenceable(48) @_ZN13FilterUnsharp16staticMetaObjectE, ptr noundef nonnull @.str.55, ptr noundef null, i32 noundef -1)
  br label %28

7:                                                ; preds = %3
  tail call void @_ZNK11QMetaObject2trEPKcS1_i(ptr dead_on_unwind writable sret(%class.QString) align 8 %0, ptr noundef nonnull align 8 dereferenceable(48) @_ZN13FilterUnsharp16staticMetaObjectE, ptr noundef nonnull @.str.56, ptr noundef null, i32 noundef -1)
  br label %28

8:                                                ; preds = %3
  tail call void @_ZNK11QMetaObject2trEPKcS1_i(ptr dead_on_unwind writable sret(%class.QString) align 8 %0, ptr noundef nonnull align 8 dereferenceable(48) @_ZN13FilterUnsharp16staticMetaObjectE, ptr noundef nonnull @.str.57, ptr noundef null, i32 noundef -1)
  br label %28

9:                                                ; preds = %3
  tail call void @_ZNK11QMetaObject2trEPKcS1_i(ptr dead_on_unwind writable sret(%class.QString) align 8 %0, ptr noundef nonnull align 8 dereferenceable(48) @_ZN13FilterUnsharp16staticMetaObjectE, ptr noundef nonnull @.str.58, ptr noundef null, i32 noundef -1)
  br label %28

10:                                               ; preds = %3
  tail call void @_ZNK11QMetaObject2trEPKcS1_i(ptr dead_on_unwind writable sret(%class.QString) align 8 %0, ptr noundef nonnull align 8 dereferenceable(48) @_ZN13FilterUnsharp16staticMetaObjectE, ptr noundef nonnull @.str.59, ptr noundef null, i32 noundef -1)
  br label %28

11:                                               ; preds = %3
  tail call void @_ZNK11QMetaObject2trEPKcS1_i(ptr dead_on_unwind writable sret(%class.QString) align 8 %0, ptr noundef nonnull align 8 dereferenceable(48) @_ZN13FilterUnsharp16staticMetaObjectE, ptr noundef nonnull @.str.60, ptr noundef null, i32 noundef -1)
  br label %28

12:                                               ; preds = %3
  tail call void @_ZNK11QMetaObject2trEPKcS1_i(ptr dead_on_unwind writable sret(%class.QString) align 8 %0, ptr noundef nonnull align 8 dereferenceable(48) @_ZN13FilterUnsharp16staticMetaObjectE, ptr noundef nonnull @.str.61, ptr noundef null, i32 noundef -1)
  br label %28

13:                                               ; preds = %3
  tail call void @_ZNK11QMetaObject2trEPKcS1_i(ptr dead_on_unwind writable sret(%class.QString) align 8 %0, ptr noundef nonnull align 8 dereferenceable(48) @_ZN13FilterUnsharp16staticMetaObjectE, ptr noundef nonnull @.str.62, ptr noundef null, i32 noundef -1)
  br label %28

14:                                               ; preds = %3
  tail call void @_ZNK11QMetaObject2trEPKcS1_i(ptr dead_on_unwind writable sret(%class.QString) align 8 %0, ptr noundef nonnull align 8 dereferenceable(48) @_ZN13FilterUnsharp16staticMetaObjectE, ptr noundef nonnull @.str.63, ptr noundef null, i32 noundef -1)
  br label %28

15:                                               ; preds = %3
  tail call void @_ZNK11QMetaObject2trEPKcS1_i(ptr dead_on_unwind writable sret(%class.QString) align 8 %0, ptr noundef nonnull align 8 dereferenceable(48) @_ZN13FilterUnsharp16staticMetaObjectE, ptr noundef nonnull @.str.64, ptr noundef null, i32 noundef -1)
  br label %28

16:                                               ; preds = %3
  tail call void @_ZNK11QMetaObject2trEPKcS1_i(ptr dead_on_unwind writable sret(%class.QString) align 8 %0, ptr noundef nonnull align 8 dereferenceable(48) @_ZN13FilterUnsharp16staticMetaObjectE, ptr noundef nonnull @.str.65, ptr noundef null, i32 noundef -1)
  br label %28

17:                                               ; preds = %3
  tail call void @_ZNK11QMetaObject2trEPKcS1_i(ptr dead_on_unwind writable sret(%class.QString) align 8 %0, ptr noundef nonnull align 8 dereferenceable(48) @_ZN13FilterUnsharp16staticMetaObjectE, ptr noundef nonnull @.str.66, ptr noundef null, i32 noundef -1)
  br label %28

18:                                               ; preds = %3
  tail call void @_ZNK11QMetaObject2trEPKcS1_i(ptr dead_on_unwind writable sret(%class.QString) align 8 %0, ptr noundef nonnull align 8 dereferenceable(48) @_ZN13FilterUnsharp16staticMetaObjectE, ptr noundef nonnull @.str.67, ptr noundef null, i32 noundef -1)
  br label %28

19:                                               ; preds = %3
  tail call void @_ZNK11QMetaObject2trEPKcS1_i(ptr dead_on_unwind writable sret(%class.QString) align 8 %0, ptr noundef nonnull align 8 dereferenceable(48) @_ZN13FilterUnsharp16staticMetaObjectE, ptr noundef nonnull @.str.68, ptr noundef null, i32 noundef -1)
  br label %28

20:                                               ; preds = %3
  tail call void @_ZNK11QMetaObject2trEPKcS1_i(ptr dead_on_unwind writable sret(%class.QString) align 8 %0, ptr noundef nonnull align 8 dereferenceable(48) @_ZN13FilterUnsharp16staticMetaObjectE, ptr noundef nonnull @.str.69, ptr noundef null, i32 noundef -1)
  br label %28

21:                                               ; preds = %3
  tail call void @_ZNK11QMetaObject2trEPKcS1_i(ptr dead_on_unwind writable sret(%class.QString) align 8 %0, ptr noundef nonnull align 8 dereferenceable(48) @_ZN13FilterUnsharp16staticMetaObjectE, ptr noundef nonnull @.str.70, ptr noundef null, i32 noundef -1)
  br label %28

22:                                               ; preds = %3
  tail call void @_ZNK11QMetaObject2trEPKcS1_i(ptr dead_on_unwind writable sret(%class.QString) align 8 %0, ptr noundef nonnull align 8 dereferenceable(48) @_ZN13FilterUnsharp16staticMetaObjectE, ptr noundef nonnull @.str.71, ptr noundef null, i32 noundef -1)
  br label %28

23:                                               ; preds = %3
  tail call void @_ZNK11QMetaObject2trEPKcS1_i(ptr dead_on_unwind writable sret(%class.QString) align 8 %0, ptr noundef nonnull align 8 dereferenceable(48) @_ZN13FilterUnsharp16staticMetaObjectE, ptr noundef nonnull @.str.72, ptr noundef null, i32 noundef -1)
  br label %28

24:                                               ; preds = %3
  %25 = tail call noundef ptr @_ZN7QString16fromAscii_helperEPKci(ptr noundef nonnull @.str.73, i32 noundef 630)
  store ptr %25, ptr %0, align 8
  br label %28

26:                                               ; preds = %3
  %27 = tail call noundef ptr @_ZN7QString16fromAscii_helperEPKci(ptr noundef nonnull @.str.74, i32 noundef 37)
  store ptr %27, ptr %0, align 8
  br label %28

28:                                               ; preds = %26, %24, %23, %22, %21, %20, %19, %18, %17, %16, %15, %14, %13, %12, %11, %10, %9, %8, %7, %6, %5, %4
  ret void
}